; Function Attrs: mustprogress nounwind uwtable
define hidden noundef ptr @_ZN13StubGenerator29generate_data_cache_writebackEv(ptr noundef nonnull align 8 dereferenceable(24) %0) local_unnamed_addr #0 align 2 {
  %2 = alloca %class.StubCodeMark, align 8
  %3 = alloca %class.Address, align 16
  %4 = getelementptr inbounds i8, ptr %0, i64 16
  %5 = load ptr, ptr %4, align 8
  %6 = load i64, ptr @CodeEntryAlignment, align 8
  %7 = trunc i64 %6 to i32
  tail call void @_ZN14MacroAssembler5alignEj(ptr noundef nonnull align 8 dereferenceable(40) %5, i32 noundef %7) #12
  call void @_ZN12StubCodeMarkC1EP17StubCodeGeneratorPKcS3_(ptr noundef nonnull align 8 dereferenceable(16) %2, ptr noundef nonnull %0, ptr noundef nonnull @.str, ptr noundef nonnull @.str.18) #12
  %8 = load ptr, ptr %4, align 8
  %9 = getelementptr inbounds i8, ptr %8, i64 8
  %10 = load ptr, ptr %9, align 8
  %11 = getelementptr inbounds i8, ptr %10, i64 16
  %12 = load ptr, ptr %11, align 8
  call void @_ZN14MacroAssembler5enterEv(ptr noundef nonnull align 8 dereferenceable(40) %8) #12
  %13 = load ptr, ptr %4, align 8
  store <4 x i32> <i32 7, i32 -1, i32 -1, i32 -1>, ptr %3, align 16
  %14 = getelementptr inbounds i8, ptr %3, i64 16
  store i32 0, ptr %14, align 16
  %15 = getelementptr inbounds i8, ptr %3, i64 20
  store i8 0, ptr %15, align 4
  %16 = getelementptr inbounds i8, ptr %3, i64 24
  store ptr getelementptr inbounds inrange(-16, 72) (i8, ptr @_ZTV10Relocation, i64 16), ptr %16, align 8
  %17 = getelementptr inbounds i8, ptr %3, i64 32
  store ptr null, ptr %17, align 16
  %18 = getelementptr inbounds i8, ptr %3, i64 40
  store i32 0, ptr %18, align 8
  call void @_ZN14MacroAssembler8cache_wbE7Address(ptr noundef nonnull align 8 dereferenceable(40) %13, ptr noundef nonnull %3) #12
  %19 = load ptr, ptr %4, align 8
  call void @_ZN14MacroAssembler5leaveEv(ptr noundef nonnull align 8 dereferenceable(40) %19) #12
  %20 = load ptr, ptr %4, align 8
  call void @_ZN9Assembler3retEi(ptr noundef nonnull align 8 dereferenceable(40) %20, i32 noundef 0) #12
  call void @_ZN12StubCodeMarkD1Ev(ptr noundef nonnull align 8 dereferenceable(16) %2) #12
  ret ptr %12
}